
main:     file format elf64-littleaarch64

SYMBOL TABLE:
0000000000400238 l    d  .interp	0000000000000000              .interp
0000000000400258 l    d  .gnu.hash	0000000000000000              .gnu.hash
0000000000400280 l    d  .dynsym	0000000000000000              .dynsym
0000000000400388 l    d  .dynstr	0000000000000000              .dynstr
0000000000400428 l    d  .gnu.version	0000000000000000              .gnu.version
0000000000400440 l    d  .gnu.version_r	0000000000000000              .gnu.version_r
0000000000400470 l    d  .rela.dyn	0000000000000000              .rela.dyn
00000000004004d0 l    d  .rela.plt	0000000000000000              .rela.plt
0000000000400578 l    d  .init	0000000000000000              .init
00000000004005a0 l    d  .plt	0000000000000000              .plt
0000000000400640 l    d  .text	0000000000000000              .text
00000000004009fc l    d  .fini	0000000000000000              .fini
0000000000400a18 l    d  .rodata	0000000000000000              .rodata
0000000000400a6c l    d  .eh_frame_hdr	0000000000000000              .eh_frame_hdr
0000000000400ac0 l    d  .eh_frame	0000000000000000              .eh_frame
0000000000400bb4 l    d  .note.ABI-tag	0000000000000000              .note.ABI-tag
000000000041fde8 l    d  .init_array	0000000000000000              .init_array
000000000041fdf0 l    d  .fini_array	0000000000000000              .fini_array
000000000041fdf8 l    d  .dynamic	0000000000000000              .dynamic
000000000041ffc8 l    d  .got	0000000000000000              .got
000000000041ffe8 l    d  .got.plt	0000000000000000              .got.plt
0000000000420038 l    d  .data	0000000000000000              .data
0000000000420050 l    d  .bss	0000000000000000              .bss
0000000000000000 l    d  .comment	0000000000000000              .comment
0000000000000000 l    d  .debug_aranges	0000000000000000              .debug_aranges
0000000000000000 l    d  .debug_info	0000000000000000              .debug_info
0000000000000000 l    d  .debug_abbrev	0000000000000000              .debug_abbrev
0000000000000000 l    d  .debug_line	0000000000000000              .debug_line
0000000000000000 l    d  .debug_str	0000000000000000              .debug_str
0000000000000000 l    d  .debug_line_str	0000000000000000              .debug_line_str
0000000000000000 l    df *ABS*	0000000000000000              crt1.o
0000000000400674 l       .text	0000000000000000              __wrap_main
0000000000400bb4 l     O .note.ABI-tag	0000000000000020              __abi_tag
0000000000000000 l    df *ABS*	0000000000000000              crti.o
0000000000400688 l     F .text	0000000000000014              call_weak_fn
0000000000000000 l    df *ABS*	0000000000000000              crtn.o
0000000000000000 l    df *ABS*	0000000000000000              crtstuff.c
00000000004006a0 l     F .text	0000000000000000              deregister_tm_clones
00000000004006d0 l     F .text	0000000000000000              register_tm_clones
000000000040070c l     F .text	0000000000000000              __do_global_dtors_aux
0000000000420058 l     O .bss	0000000000000001              completed.0
000000000041fdf0 l     O .fini_array	0000000000000000              __do_global_dtors_aux_fini_array_entry
0000000000400740 l     F .text	0000000000000000              frame_dummy
000000000041fde8 l     O .init_array	0000000000000000              __frame_dummy_init_array_entry
0000000000000000 l    df *ABS*	0000000000000000              main.c
0000000000000000 l    df *ABS*	0000000000000000              crtstuff.c
0000000000400bb0 l     O .eh_frame	0000000000000000              __FRAME_END__
0000000000000000 l    df *ABS*	0000000000000000              
000000000041fdf8 l     O .dynamic	0000000000000000              _DYNAMIC
0000000000400a6c l       .eh_frame_hdr	0000000000000000              __GNU_EH_FRAME_HDR
000000000041ffc8 l     O .got	0000000000000000              _GLOBAL_OFFSET_TABLE_
0000000000000000       F *UND*	0000000000000000              __libc_start_main@GLIBC_2.34
0000000000000000  w      *UND*	0000000000000000              _ITM_deregisterTMCloneTable
0000000000420038  w      .data	0000000000000000              data_start
0000000000420050 g       .bss	0000000000000000              __bss_start__
0000000000420050 g     O .bss	0000000000000008              stderr@GLIBC_2.17
0000000000420060 g       .bss	0000000000000000              _bss_end__
0000000000420048 g       .data	0000000000000000              _edata
00000000004009fc g     F .fini	0000000000000000              .hidden _fini
0000000000420060 g       .bss	0000000000000000              __bss_end__
0000000000400744 g     F .text	00000000000000e8              matrix_multiply
0000000000000000       F *UND*	0000000000000000              malloc@GLIBC_2.17
0000000000420038 g       .data	0000000000000000              __data_start
0000000000000000  w      *UND*	0000000000000000              __gmon_start__
0000000000420040 g     O .data	0000000000000000              .hidden __dso_handle
0000000000000000       F *UND*	0000000000000000              abort@GLIBC_2.17
0000000000400a18 g     O .rodata	0000000000000004              _IO_stdin_used
0000000000420060 g       .bss	0000000000000000              _end
0000000000000000       F *UND*	0000000000000000              free@GLIBC_2.17
0000000000400680 g     F .text	0000000000000008              .hidden _dl_relocate_static_pie
0000000000400640 g     F .text	000000000000003c              _start
0000000000420060 g       .bss	0000000000000000              __end__
0000000000420050 g       .bss	0000000000000000              __bss_start
0000000000400908 g     F .text	00000000000000f4              main
000000000040082c g     F .text	00000000000000dc              init_matrices
0000000000000000       F *UND*	0000000000000000              fwrite@GLIBC_2.17
0000000000420048 g     O .data	0000000000000000              .hidden __TMC_END__
0000000000000000  w      *UND*	0000000000000000              _ITM_registerTMCloneTable
0000000000000000       F *UND*	0000000000000000              printf@GLIBC_2.17
0000000000400578 g     F .init	0000000000000000              .hidden _init



Disassembly of section .init:

0000000000400578 <_init>:
  400578:	d503233f 	paciasp
  40057c:	a9bf7bfd 	stp	x29, x30, [sp, #-16]!
  400580:	910003fd 	mov	x29, sp
  400584:	94000041 	bl	400688 <call_weak_fn>
  400588:	a8c17bfd 	ldp	x29, x30, [sp], #16
  40058c:	d50323bf 	autiasp
  400590:	d65f03c0 	ret

Disassembly of section .plt:

00000000004005a0 <.plt>:
  4005a0:	a9bf7bf0 	stp	x16, x30, [sp, #-16]!
  4005a4:	f00000f0 	adrp	x16, 41f000 <__abi_tag+0x1e44c>
  4005a8:	f947fe11 	ldr	x17, [x16, #4088]
  4005ac:	913fe210 	add	x16, x16, #0xff8
  4005b0:	d61f0220 	br	x17
  4005b4:	d503201f 	nop
  4005b8:	d503201f 	nop
  4005bc:	d503201f 	nop

00000000004005c0 <__libc_start_main@plt>:
  4005c0:	90000110 	adrp	x16, 420000 <__libc_start_main@GLIBC_2.34>
  4005c4:	f9400211 	ldr	x17, [x16]
  4005c8:	91000210 	add	x16, x16, #0x0
  4005cc:	d61f0220 	br	x17

00000000004005d0 <malloc@plt>:
  4005d0:	90000110 	adrp	x16, 420000 <__libc_start_main@GLIBC_2.34>
  4005d4:	f9400611 	ldr	x17, [x16, #8]
  4005d8:	91002210 	add	x16, x16, #0x8
  4005dc:	d61f0220 	br	x17

00000000004005e0 <__gmon_start__@plt>:
  4005e0:	90000110 	adrp	x16, 420000 <__libc_start_main@GLIBC_2.34>
  4005e4:	f9400a11 	ldr	x17, [x16, #16]
  4005e8:	91004210 	add	x16, x16, #0x10
  4005ec:	d61f0220 	br	x17

00000000004005f0 <abort@plt>:
  4005f0:	90000110 	adrp	x16, 420000 <__libc_start_main@GLIBC_2.34>
  4005f4:	f9400e11 	ldr	x17, [x16, #24]
  4005f8:	91006210 	add	x16, x16, #0x18
  4005fc:	d61f0220 	br	x17

0000000000400600 <free@plt>:
  400600:	90000110 	adrp	x16, 420000 <__libc_start_main@GLIBC_2.34>
  400604:	f9401211 	ldr	x17, [x16, #32]
  400608:	91008210 	add	x16, x16, #0x20
  40060c:	d61f0220 	br	x17

0000000000400610 <fwrite@plt>:
  400610:	90000110 	adrp	x16, 420000 <__libc_start_main@GLIBC_2.34>
  400614:	f9401611 	ldr	x17, [x16, #40]
  400618:	9100a210 	add	x16, x16, #0x28
  40061c:	d61f0220 	br	x17

0000000000400620 <printf@plt>:
  400620:	90000110 	adrp	x16, 420000 <__libc_start_main@GLIBC_2.34>
  400624:	f9401a11 	ldr	x17, [x16, #48]
  400628:	9100c210 	add	x16, x16, #0x30
  40062c:	d61f0220 	br	x17

Disassembly of section .text:

0000000000400640 <_start>:
  400640:	d503245f 	bti	c
  400644:	d280001d 	mov	x29, #0x0                   	// #0
  400648:	d280001e 	mov	x30, #0x0                   	// #0
  40064c:	aa0003e5 	mov	x5, x0
  400650:	f94003e1 	ldr	x1, [sp]
  400654:	910023e2 	add	x2, sp, #0x8
  400658:	910003e6 	mov	x6, sp
  40065c:	90000000 	adrp	x0, 400000 <_init-0x578>
  400660:	9119d000 	add	x0, x0, #0x674
  400664:	d2800003 	mov	x3, #0x0                   	// #0
  400668:	d2800004 	mov	x4, #0x0                   	// #0
  40066c:	97ffffd5 	bl	4005c0 <__libc_start_main@plt>
  400670:	97ffffe0 	bl	4005f0 <abort@plt>

0000000000400674 <__wrap_main>:
  400674:	d503245f 	bti	c
  400678:	140000a4 	b	400908 <main>
  40067c:	d503201f 	nop

0000000000400680 <_dl_relocate_static_pie>:
  400680:	d503245f 	bti	c
  400684:	d65f03c0 	ret

0000000000400688 <call_weak_fn>:
  400688:	f00000e0 	adrp	x0, 41f000 <__abi_tag+0x1e44c>
  40068c:	f947ec00 	ldr	x0, [x0, #4056]
  400690:	b4000040 	cbz	x0, 400698 <call_weak_fn+0x10>
  400694:	17ffffd3 	b	4005e0 <__gmon_start__@plt>
  400698:	d65f03c0 	ret
  40069c:	d503201f 	nop

00000000004006a0 <deregister_tm_clones>:
  4006a0:	90000100 	adrp	x0, 420000 <__libc_start_main@GLIBC_2.34>
  4006a4:	91012000 	add	x0, x0, #0x48
  4006a8:	90000101 	adrp	x1, 420000 <__libc_start_main@GLIBC_2.34>
  4006ac:	91012021 	add	x1, x1, #0x48
  4006b0:	eb00003f 	cmp	x1, x0
  4006b4:	540000c0 	b.eq	4006cc <deregister_tm_clones+0x2c>  // b.none
  4006b8:	f00000e1 	adrp	x1, 41f000 <__abi_tag+0x1e44c>
  4006bc:	f947e821 	ldr	x1, [x1, #4048]
  4006c0:	b4000061 	cbz	x1, 4006cc <deregister_tm_clones+0x2c>
  4006c4:	aa0103f0 	mov	x16, x1
  4006c8:	d61f0200 	br	x16
  4006cc:	d65f03c0 	ret

00000000004006d0 <register_tm_clones>:
  4006d0:	90000100 	adrp	x0, 420000 <__libc_start_main@GLIBC_2.34>
  4006d4:	91012000 	add	x0, x0, #0x48
  4006d8:	90000101 	adrp	x1, 420000 <__libc_start_main@GLIBC_2.34>
  4006dc:	91012021 	add	x1, x1, #0x48
  4006e0:	cb000021 	sub	x1, x1, x0
  4006e4:	d37ffc22 	lsr	x2, x1, #63
  4006e8:	8b810c41 	add	x1, x2, x1, asr #3
  4006ec:	9341fc21 	asr	x1, x1, #1
  4006f0:	b40000c1 	cbz	x1, 400708 <register_tm_clones+0x38>
  4006f4:	f00000e2 	adrp	x2, 41f000 <__abi_tag+0x1e44c>
  4006f8:	f947f042 	ldr	x2, [x2, #4064]
  4006fc:	b4000062 	cbz	x2, 400708 <register_tm_clones+0x38>
  400700:	aa0203f0 	mov	x16, x2
  400704:	d61f0200 	br	x16
  400708:	d65f03c0 	ret

000000000040070c <__do_global_dtors_aux>:
  40070c:	a9be7bfd 	stp	x29, x30, [sp, #-32]!
  400710:	910003fd 	mov	x29, sp
  400714:	f9000bf3 	str	x19, [sp, #16]
  400718:	90000113 	adrp	x19, 420000 <__libc_start_main@GLIBC_2.34>
  40071c:	39416260 	ldrb	w0, [x19, #88]
  400720:	37000080 	tbnz	w0, #0, 400730 <__do_global_dtors_aux+0x24>
  400724:	97ffffdf 	bl	4006a0 <deregister_tm_clones>
  400728:	52800020 	mov	w0, #0x1                   	// #1
  40072c:	39016260 	strb	w0, [x19, #88]
  400730:	f9400bf3 	ldr	x19, [sp, #16]
  400734:	a8c27bfd 	ldp	x29, x30, [sp], #32
  400738:	d65f03c0 	ret
  40073c:	d503201f 	nop

0000000000400740 <frame_dummy>:
  400740:	17ffffe4 	b	4006d0 <register_tm_clones>

0000000000400744 <matrix_multiply>:
#include <time.h>

#define N 64      // Matrix size
#define B 8       // Blocking factor (cache line size consideration)

void matrix_multiply(double x[N][N], double y[N][N], double z[N][N]) {
  400744:	d100c3ff 	sub	sp, sp, #0x30
  400748:	f9000fe0 	str	x0, [sp, #24]
  40074c:	f9000be1 	str	x1, [sp, #16]
  400750:	f90007e2 	str	x2, [sp, #8]
    for (int i = 0; i < N; i++) {
  400754:	b9002fff 	str	wzr, [sp, #44]
  400758:	1400002e 	b	400810 <matrix_multiply+0xcc>
        for (int j = 0; j < N; j++) {
  40075c:	b9002bff 	str	wzr, [sp, #40]
  400760:	14000026 	b	4007f8 <matrix_multiply+0xb4>
            for (int k = 0; k < N; k++) {
  400764:	b90027ff 	str	wzr, [sp, #36]
  400768:	1400001e 	b	4007e0 <matrix_multiply+0x9c>
                x[i][j] = x[i][j] + y[i][k] * z[k][j];
  40076c:	b9802fe0 	ldrsw	x0, [sp, #44]
  400770:	d377d800 	lsl	x0, x0, #9
  400774:	f9400fe1 	ldr	x1, [sp, #24]
  400778:	8b000020 	add	x0, x1, x0
  40077c:	b9802be1 	ldrsw	x1, [sp, #40]
  400780:	fc61781e 	ldr	d30, [x0, x1, lsl #3]
  400784:	b9802fe0 	ldrsw	x0, [sp, #44]
  400788:	d377d800 	lsl	x0, x0, #9
  40078c:	f9400be1 	ldr	x1, [sp, #16]
  400790:	8b000020 	add	x0, x1, x0
  400794:	b98027e1 	ldrsw	x1, [sp, #36]
  400798:	fc61781d 	ldr	d29, [x0, x1, lsl #3]
  40079c:	b98027e0 	ldrsw	x0, [sp, #36]
  4007a0:	d377d800 	lsl	x0, x0, #9
  4007a4:	f94007e1 	ldr	x1, [sp, #8]
  4007a8:	8b000020 	add	x0, x1, x0
  4007ac:	b9802be1 	ldrsw	x1, [sp, #40]
  4007b0:	fc61781f 	ldr	d31, [x0, x1, lsl #3]
  4007b4:	1e7f0bbf 	fmul	d31, d29, d31
  4007b8:	b9802fe0 	ldrsw	x0, [sp, #44]
  4007bc:	d377d800 	lsl	x0, x0, #9
  4007c0:	f9400fe1 	ldr	x1, [sp, #24]
  4007c4:	8b000020 	add	x0, x1, x0
  4007c8:	1e7f2bdf 	fadd	d31, d30, d31
  4007cc:	b9802be1 	ldrsw	x1, [sp, #40]
  4007d0:	fc21781f 	str	d31, [x0, x1, lsl #3]
            for (int k = 0; k < N; k++) {
  4007d4:	b94027e0 	ldr	w0, [sp, #36]
  4007d8:	11000400 	add	w0, w0, #0x1
  4007dc:	b90027e0 	str	w0, [sp, #36]
  4007e0:	b94027e0 	ldr	w0, [sp, #36]
  4007e4:	7100fc1f 	cmp	w0, #0x3f
  4007e8:	54fffc2d 	b.le	40076c <matrix_multiply+0x28>
        for (int j = 0; j < N; j++) {
  4007ec:	b9402be0 	ldr	w0, [sp, #40]
  4007f0:	11000400 	add	w0, w0, #0x1
  4007f4:	b9002be0 	str	w0, [sp, #40]
  4007f8:	b9402be0 	ldr	w0, [sp, #40]
  4007fc:	7100fc1f 	cmp	w0, #0x3f
  400800:	54fffb2d 	b.le	400764 <matrix_multiply+0x20>
    for (int i = 0; i < N; i++) {
  400804:	b9402fe0 	ldr	w0, [sp, #44]
  400808:	11000400 	add	w0, w0, #0x1
  40080c:	b9002fe0 	str	w0, [sp, #44]
  400810:	b9402fe0 	ldr	w0, [sp, #44]
  400814:	7100fc1f 	cmp	w0, #0x3f
  400818:	54fffa2d 	b.le	40075c <matrix_multiply+0x18>
            }
        }
    }
}
  40081c:	d503201f 	nop
  400820:	d503201f 	nop
  400824:	9100c3ff 	add	sp, sp, #0x30
  400828:	d65f03c0 	ret

000000000040082c <init_matrices>:

// Initialize matrices
void init_matrices(double x[N][N], double y[N][N], double z[N][N]) {
  40082c:	d100c3ff 	sub	sp, sp, #0x30
  400830:	f9000fe0 	str	x0, [sp, #24]
  400834:	f9000be1 	str	x1, [sp, #16]
  400838:	f90007e2 	str	x2, [sp, #8]
    for (int i = 0; i < N; i++) {
  40083c:	b9002fff 	str	wzr, [sp, #44]
  400840:	1400002b 	b	4008ec <init_matrices+0xc0>
        for (int j = 0; j < N; j++) {
  400844:	b9002bff 	str	wzr, [sp, #40]
  400848:	14000023 	b	4008d4 <init_matrices+0xa8>
            x[i][j] = 0.0;
  40084c:	b9802fe0 	ldrsw	x0, [sp, #44]
  400850:	d377d800 	lsl	x0, x0, #9
  400854:	f9400fe1 	ldr	x1, [sp, #24]
  400858:	8b000020 	add	x0, x1, x0
  40085c:	b9802be1 	ldrsw	x1, [sp, #40]
  400860:	f821781f 	str	xzr, [x0, x1, lsl #3]
            y[i][j] = (double)(i * N + j);
  400864:	b9402fe0 	ldr	w0, [sp, #44]
  400868:	531a6401 	lsl	w1, w0, #6
  40086c:	b9402be0 	ldr	w0, [sp, #40]
  400870:	0b000021 	add	w1, w1, w0
  400874:	b9802fe0 	ldrsw	x0, [sp, #44]
  400878:	d377d800 	lsl	x0, x0, #9
  40087c:	f9400be2 	ldr	x2, [sp, #16]
  400880:	8b000040 	add	x0, x2, x0
  400884:	1e62003f 	scvtf	d31, w1
  400888:	b9802be1 	ldrsw	x1, [sp, #40]
  40088c:	fc21781f 	str	d31, [x0, x1, lsl #3]
            z[i][j] = (double)((i + j) % N);
  400890:	b9402fe1 	ldr	w1, [sp, #44]
  400894:	b9402be0 	ldr	w0, [sp, #40]
  400898:	0b000020 	add	w0, w1, w0
  40089c:	6b0003e1 	negs	w1, w0
  4008a0:	12001400 	and	w0, w0, #0x3f
  4008a4:	12001421 	and	w1, w1, #0x3f
  4008a8:	5a814401 	csneg	w1, w0, w1, mi	// mi = first
  4008ac:	b9802fe0 	ldrsw	x0, [sp, #44]
  4008b0:	d377d800 	lsl	x0, x0, #9
  4008b4:	f94007e2 	ldr	x2, [sp, #8]
  4008b8:	8b000040 	add	x0, x2, x0
  4008bc:	1e62003f 	scvtf	d31, w1
  4008c0:	b9802be1 	ldrsw	x1, [sp, #40]
  4008c4:	fc21781f 	str	d31, [x0, x1, lsl #3]
        for (int j = 0; j < N; j++) {
  4008c8:	b9402be0 	ldr	w0, [sp, #40]
  4008cc:	11000400 	add	w0, w0, #0x1
  4008d0:	b9002be0 	str	w0, [sp, #40]
  4008d4:	b9402be0 	ldr	w0, [sp, #40]
  4008d8:	7100fc1f 	cmp	w0, #0x3f
  4008dc:	54fffb8d 	b.le	40084c <init_matrices+0x20>
    for (int i = 0; i < N; i++) {
  4008e0:	b9402fe0 	ldr	w0, [sp, #44]
  4008e4:	11000400 	add	w0, w0, #0x1
  4008e8:	b9002fe0 	str	w0, [sp, #44]
  4008ec:	b9402fe0 	ldr	w0, [sp, #44]
  4008f0:	7100fc1f 	cmp	w0, #0x3f
  4008f4:	54fffa8d 	b.le	400844 <init_matrices+0x18>
        }
    }
}
  4008f8:	d503201f 	nop
  4008fc:	d503201f 	nop
  400900:	9100c3ff 	add	sp, sp, #0x30
  400904:	d65f03c0 	ret

0000000000400908 <main>:

int main() {
  400908:	a9bd7bfd 	stp	x29, x30, [sp, #-48]!
  40090c:	910003fd 	mov	x29, sp
    double (*x)[N] = malloc(sizeof(double) * N * N);
  400910:	d2900000 	mov	x0, #0x8000                	// #32768
  400914:	97ffff2f 	bl	4005d0 <malloc@plt>
  400918:	f90017e0 	str	x0, [sp, #40]
    double (*y)[N] = malloc(sizeof(double) * N * N);
  40091c:	d2900000 	mov	x0, #0x8000                	// #32768
  400920:	97ffff2c 	bl	4005d0 <malloc@plt>
  400924:	f90013e0 	str	x0, [sp, #32]
    double (*z)[N] = malloc(sizeof(double) * N * N);
  400928:	d2900000 	mov	x0, #0x8000                	// #32768
  40092c:	97ffff29 	bl	4005d0 <malloc@plt>
  400930:	f9000fe0 	str	x0, [sp, #24]
    
    if (!x || !y || !z) {
  400934:	f94017e0 	ldr	x0, [sp, #40]
  400938:	f100001f 	cmp	x0, #0x0
  40093c:	540000e0 	b.eq	400958 <main+0x50>  // b.none
  400940:	f94013e0 	ldr	x0, [sp, #32]
  400944:	f100001f 	cmp	x0, #0x0
  400948:	54000080 	b.eq	400958 <main+0x50>  // b.none
  40094c:	f9400fe0 	ldr	x0, [sp, #24]
  400950:	f100001f 	cmp	x0, #0x0
  400954:	54000181 	b.ne	400984 <main+0x7c>  // b.any
        fprintf(stderr, "Memory allocation failed\n");
  400958:	90000100 	adrp	x0, 420000 <__libc_start_main@GLIBC_2.34>
  40095c:	91014000 	add	x0, x0, #0x50
  400960:	f9400000 	ldr	x0, [x0]
  400964:	aa0003e3 	mov	x3, x0
  400968:	d2800322 	mov	x2, #0x19                  	// #25
  40096c:	d2800021 	mov	x1, #0x1                   	// #1
  400970:	90000000 	adrp	x0, 400000 <_init-0x578>
  400974:	91288000 	add	x0, x0, #0xa20
  400978:	97ffff26 	bl	400610 <fwrite@plt>
        return 1;
  40097c:	52800020 	mov	w0, #0x1                   	// #1
  400980:	1400001d 	b	4009f4 <main+0xec>
    }

    init_matrices(x, y, z);
  400984:	f9400fe2 	ldr	x2, [sp, #24]
  400988:	f94013e1 	ldr	x1, [sp, #32]
  40098c:	f94017e0 	ldr	x0, [sp, #40]
  400990:	97ffffa7 	bl	40082c <init_matrices>
    
    // Run blocked version
    matrix_multiply(x, y, z);
  400994:	f9400fe2 	ldr	x2, [sp, #24]
  400998:	f94013e1 	ldr	x1, [sp, #32]
  40099c:	f94017e0 	ldr	x0, [sp, #40]
  4009a0:	97ffff69 	bl	400744 <matrix_multiply>
    
    // Print result sample
    printf("Result[0][0] = %f\n", x[0][0]);
  4009a4:	f94017e0 	ldr	x0, [sp, #40]
  4009a8:	fd40001f 	ldr	d31, [x0]
  4009ac:	1e6043e0 	fmov	d0, d31
  4009b0:	90000000 	adrp	x0, 400000 <_init-0x578>
  4009b4:	91290000 	add	x0, x0, #0xa40
  4009b8:	97ffff1a 	bl	400620 <printf@plt>
    printf("Result[5][5] = %f\n", x[5][5]);
  4009bc:	f94017e0 	ldr	x0, [sp, #40]
  4009c0:	91280000 	add	x0, x0, #0xa00
  4009c4:	fd40141f 	ldr	d31, [x0, #40]
  4009c8:	1e6043e0 	fmov	d0, d31
  4009cc:	90000000 	adrp	x0, 400000 <_init-0x578>
  4009d0:	91296000 	add	x0, x0, #0xa58
  4009d4:	97ffff13 	bl	400620 <printf@plt>
    
    free(x);
  4009d8:	f94017e0 	ldr	x0, [sp, #40]
  4009dc:	97ffff09 	bl	400600 <free@plt>
    free(y);
  4009e0:	f94013e0 	ldr	x0, [sp, #32]
  4009e4:	97ffff07 	bl	400600 <free@plt>
    free(z);
  4009e8:	f9400fe0 	ldr	x0, [sp, #24]
  4009ec:	97ffff05 	bl	400600 <free@plt>
    
    return 0;
  4009f0:	52800000 	mov	w0, #0x0                   	// #0
  4009f4:	a8c37bfd 	ldp	x29, x30, [sp], #48
  4009f8:	d65f03c0 	ret

Disassembly of section .fini:

00000000004009fc <_fini>:
  4009fc:	d503233f 	paciasp
  400a00:	a9bf7bfd 	stp	x29, x30, [sp, #-16]!
  400a04:	910003fd 	mov	x29, sp
  400a08:	a8c17bfd 	ldp	x29, x30, [sp], #16
  400a0c:	d50323bf 	autiasp
  400a10:	d65f03c0 	ret
