
main:     file format elf64-littleaarch64

SYMBOL TABLE:
0000000000400238 l    d  .interp	0000000000000000              .interp
0000000000400258 l    d  .gnu.hash	0000000000000000              .gnu.hash
0000000000400278 l    d  .dynsym	0000000000000000              .dynsym
0000000000400320 l    d  .dynstr	0000000000000000              .dynstr
00000000004003a6 l    d  .gnu.version	0000000000000000              .gnu.version
00000000004003b8 l    d  .gnu.version_r	0000000000000000              .gnu.version_r
00000000004003e8 l    d  .rela.dyn	0000000000000000              .rela.dyn
0000000000400430 l    d  .rela.plt	0000000000000000              .rela.plt
0000000000400490 l    d  .init	0000000000000000              .init
00000000004004b0 l    d  .plt	0000000000000000              .plt
0000000000400540 l    d  .text	0000000000000000              .text
00000000004006c4 l    d  .fini	0000000000000000              .fini
00000000004006e0 l    d  .rodata	0000000000000000              .rodata
0000000000400730 l    d  .eh_frame_hdr	0000000000000000              .eh_frame_hdr
0000000000400778 l    d  .eh_frame	0000000000000000              .eh_frame
000000000040083c l    d  .note.ABI-tag	0000000000000000              .note.ABI-tag
000000000041fde8 l    d  .init_array	0000000000000000              .init_array
000000000041fdf0 l    d  .fini_array	0000000000000000              .fini_array
000000000041fdf8 l    d  .dynamic	0000000000000000              .dynamic
000000000041ffc8 l    d  .got	0000000000000000              .got
000000000041ffe8 l    d  .got.plt	0000000000000000              .got.plt
0000000000420020 l    d  .data	0000000000000000              .data
0000000000420030 l    d  .bss	0000000000000000              .bss
0000000000000000 l    d  .comment	0000000000000000              .comment
0000000000000000 l    d  .debug_aranges	0000000000000000              .debug_aranges
0000000000000000 l    d  .debug_info	0000000000000000              .debug_info
0000000000000000 l    d  .debug_abbrev	0000000000000000              .debug_abbrev
0000000000000000 l    d  .debug_line	0000000000000000              .debug_line
0000000000000000 l    d  .debug_str	0000000000000000              .debug_str
0000000000000000 l    d  .debug_line_str	0000000000000000              .debug_line_str
0000000000000000 l    d  .debug_loclists	0000000000000000              .debug_loclists
0000000000000000 l    d  .debug_rnglists	0000000000000000              .debug_rnglists
0000000000000000 l    df *ABS*	0000000000000000              crt1.o
00000000004005f4 l       .text	0000000000000000              __wrap_main
000000000040083c l     O .note.ABI-tag	0000000000000020              __abi_tag
0000000000000000 l    df *ABS*	0000000000000000              crti.o
0000000000400608 l     F .text	0000000000000014              call_weak_fn
0000000000000000 l    df *ABS*	0000000000000000              crtn.o
0000000000000000 l    df *ABS*	0000000000000000              main.c
0000000000000000 l    df *ABS*	0000000000000000              crtstuff.c
0000000000400620 l     F .text	0000000000000000              deregister_tm_clones
0000000000400650 l     F .text	0000000000000000              register_tm_clones
000000000040068c l     F .text	0000000000000000              __do_global_dtors_aux
0000000000420030 l     O .bss	0000000000000001              completed.0
000000000041fdf0 l     O .fini_array	0000000000000000              __do_global_dtors_aux_fini_array_entry
00000000004006c0 l     F .text	0000000000000000              frame_dummy
000000000041fde8 l     O .init_array	0000000000000000              __frame_dummy_init_array_entry
0000000000000000 l    df *ABS*	0000000000000000              crtstuff.c
0000000000400838 l     O .eh_frame	0000000000000000              __FRAME_END__
0000000000000000 l    df *ABS*	0000000000000000              
000000000041fdf8 l     O .dynamic	0000000000000000              _DYNAMIC
0000000000400730 l       .eh_frame_hdr	0000000000000000              __GNU_EH_FRAME_HDR
000000000041ffc8 l     O .got	0000000000000000              _GLOBAL_OFFSET_TABLE_
0000000000000000       F *UND*	0000000000000000              __libc_start_main@GLIBC_2.34
0000000000000000  w      *UND*	0000000000000000              _ITM_deregisterTMCloneTable
0000000000420020  w      .data	0000000000000000              data_start
0000000000420030 g       .bss	0000000000000000              __bss_start__
0000000000420038 g       .bss	0000000000000000              _bss_end__
0000000000420030 g       .data	0000000000000000              _edata
00000000004006c4 g     F .fini	0000000000000000              .hidden _fini
0000000000420038 g       .bss	0000000000000000              __bss_end__
0000000000420020 g       .data	0000000000000000              __data_start
0000000000000000  w      *UND*	0000000000000000              __gmon_start__
0000000000420028 g     O .data	0000000000000000              .hidden __dso_handle
0000000000000000       F *UND*	0000000000000000              abort@GLIBC_2.17
00000000004006e0 g     O .rodata	0000000000000004              _IO_stdin_used
0000000000420038 g       .bss	0000000000000000              _end
0000000000400600 g     F .text	0000000000000008              .hidden _dl_relocate_static_pie
00000000004005c0 g     F .text	000000000000003c              _start
0000000000420038 g       .bss	0000000000000000              __end__
0000000000420030 g       .bss	0000000000000000              __bss_start
0000000000400540 g     F .text	0000000000000074              main
0000000000420030 g     O .data	0000000000000000              .hidden __TMC_END__
0000000000000000  w      *UND*	0000000000000000              _ITM_registerTMCloneTable
0000000000000000       F *UND*	0000000000000000              printf@GLIBC_2.17
0000000000400490 g     F .init	0000000000000000              .hidden _init



Disassembly of section .init:

0000000000400490 <_init>:
  400490:	d503233f 	paciasp
  400494:	a9bf7bfd 	stp	x29, x30, [sp, #-16]!
  400498:	910003fd 	mov	x29, sp
  40049c:	9400005b 	bl	400608 <call_weak_fn>
  4004a0:	a8c17bfd 	ldp	x29, x30, [sp], #16
  4004a4:	d50323bf 	autiasp
  4004a8:	d65f03c0 	ret

Disassembly of section .plt:

00000000004004b0 <.plt>:
  4004b0:	a9bf7bf0 	stp	x16, x30, [sp, #-16]!
  4004b4:	f00000f0 	adrp	x16, 41f000 <__abi_tag+0x1e7c4>
  4004b8:	f947fe11 	ldr	x17, [x16, #4088]
  4004bc:	913fe210 	add	x16, x16, #0xff8
  4004c0:	d61f0220 	br	x17
  4004c4:	d503201f 	nop
  4004c8:	d503201f 	nop
  4004cc:	d503201f 	nop

00000000004004d0 <__libc_start_main@plt>:
  4004d0:	90000110 	adrp	x16, 420000 <__libc_start_main@GLIBC_2.34>
  4004d4:	f9400211 	ldr	x17, [x16]
  4004d8:	91000210 	add	x16, x16, #0x0
  4004dc:	d61f0220 	br	x17

00000000004004e0 <__gmon_start__@plt>:
  4004e0:	90000110 	adrp	x16, 420000 <__libc_start_main@GLIBC_2.34>
  4004e4:	f9400611 	ldr	x17, [x16, #8]
  4004e8:	91002210 	add	x16, x16, #0x8
  4004ec:	d61f0220 	br	x17

00000000004004f0 <abort@plt>:
  4004f0:	90000110 	adrp	x16, 420000 <__libc_start_main@GLIBC_2.34>
  4004f4:	f9400a11 	ldr	x17, [x16, #16]
  4004f8:	91004210 	add	x16, x16, #0x10
  4004fc:	d61f0220 	br	x17

0000000000400500 <printf@plt>:
  400500:	90000110 	adrp	x16, 420000 <__libc_start_main@GLIBC_2.34>
  400504:	f9400e11 	ldr	x17, [x16, #24]
  400508:	91006210 	add	x16, x16, #0x18
  40050c:	d61f0220 	br	x17

Disassembly of section .text:

0000000000400540 <main>:
// nested_unroll_demo.c
#include <stdio.h>

int main(void) {
  400540:	a9bf7bfd 	stp	x29, x30, [sp, #-16]!
  400544:	90000001 	adrp	x1, 400000 <_init-0x490>
  400548:	52800000 	mov	w0, #0x0                   	// #0
  40054c:	4f00041e 	movi	v30.4s, #0x0
  400550:	910003fd 	mov	x29, sp
  400554:	3dc1c03f 	ldr	q31, [x1, #1792]
  400558:	90000001 	adrp	x1, 400000 <_init-0x490>
  40055c:	4f00049d 	movi	v29.4s, #0x4
  400560:	3dc1c43c 	ldr	q28, [x1, #1808]
  400564:	90000001 	adrp	x1, 400000 <_init-0x490>
  400568:	3dc1c83b 	ldr	q27, [x1, #1824]
  40056c:	11000400 	add	w0, w0, #0x1
  400570:	4ebf1ffa 	mov	v26.16b, v31.16b
  400574:	4ebc1f99 	mov	v25.16b, v28.16b
  400578:	4ebd87ff 	add	v31.4s, v31.4s, v29.4s
    int n = 1000;
    int sum = 0;
    for (int i = 0; i < n; i++) {
        for (int j = 0; j < n; j++) {
  40057c:	4eba87de 	add	v30.4s, v30.4s, v26.4s
  400580:	4ebc9759 	mla	v25.4s, v26.4s, v28.4s
  400584:	4ebb87de 	add	v30.4s, v30.4s, v27.4s
  400588:	4ebe873e 	add	v30.4s, v25.4s, v30.4s
    for (int i = 0; i < n; i++) {
  40058c:	7103e81f 	cmp	w0, #0xfa
  400590:	54fffee1 	b.ne	40056c <main+0x2c>  // b.any
            sum += i + j;
        }
    }
    printf("sum = %d\n", sum);
  400594:	4eb1bbdf 	addv	s31, v30.4s
  400598:	90000000 	adrp	x0, 400000 <_init-0x490>
  40059c:	911ba000 	add	x0, x0, #0x6e8
  4005a0:	1e2603e1 	fmov	w1, s31
  4005a4:	97ffffd7 	bl	400500 <printf@plt>
    return 0;
}
  4005a8:	52800000 	mov	w0, #0x0                   	// #0
  4005ac:	a8c17bfd 	ldp	x29, x30, [sp], #16
  4005b0:	d65f03c0 	ret
  4005b4:	d503201f 	nop
  4005b8:	d503201f 	nop
  4005bc:	d503201f 	nop

00000000004005c0 <_start>:
  4005c0:	d503245f 	bti	c
  4005c4:	d280001d 	mov	x29, #0x0                   	// #0
  4005c8:	d280001e 	mov	x30, #0x0                   	// #0
  4005cc:	aa0003e5 	mov	x5, x0
  4005d0:	f94003e1 	ldr	x1, [sp]
  4005d4:	910023e2 	add	x2, sp, #0x8
  4005d8:	910003e6 	mov	x6, sp
  4005dc:	90000000 	adrp	x0, 400000 <_init-0x490>
  4005e0:	9117d000 	add	x0, x0, #0x5f4
  4005e4:	d2800003 	mov	x3, #0x0                   	// #0
  4005e8:	d2800004 	mov	x4, #0x0                   	// #0
  4005ec:	97ffffb9 	bl	4004d0 <__libc_start_main@plt>
  4005f0:	97ffffc0 	bl	4004f0 <abort@plt>

00000000004005f4 <__wrap_main>:
  4005f4:	d503245f 	bti	c
  4005f8:	17ffffd2 	b	400540 <main>
  4005fc:	d503201f 	nop

0000000000400600 <_dl_relocate_static_pie>:
  400600:	d503245f 	bti	c
  400604:	d65f03c0 	ret

0000000000400608 <call_weak_fn>:
  400608:	f00000e0 	adrp	x0, 41f000 <__abi_tag+0x1e7c4>
  40060c:	f947ec00 	ldr	x0, [x0, #4056]
  400610:	b4000040 	cbz	x0, 400618 <call_weak_fn+0x10>
  400614:	17ffffb3 	b	4004e0 <__gmon_start__@plt>
  400618:	d65f03c0 	ret
  40061c:	d503201f 	nop

0000000000400620 <deregister_tm_clones>:
  400620:	90000100 	adrp	x0, 420000 <__libc_start_main@GLIBC_2.34>
  400624:	9100c000 	add	x0, x0, #0x30
  400628:	90000101 	adrp	x1, 420000 <__libc_start_main@GLIBC_2.34>
  40062c:	9100c021 	add	x1, x1, #0x30
  400630:	eb00003f 	cmp	x1, x0
  400634:	540000c0 	b.eq	40064c <deregister_tm_clones+0x2c>  // b.none
  400638:	f00000e1 	adrp	x1, 41f000 <__abi_tag+0x1e7c4>
  40063c:	f947e821 	ldr	x1, [x1, #4048]
  400640:	b4000061 	cbz	x1, 40064c <deregister_tm_clones+0x2c>
  400644:	aa0103f0 	mov	x16, x1
  400648:	d61f0200 	br	x16
  40064c:	d65f03c0 	ret

0000000000400650 <register_tm_clones>:
  400650:	90000100 	adrp	x0, 420000 <__libc_start_main@GLIBC_2.34>
  400654:	9100c000 	add	x0, x0, #0x30
  400658:	90000101 	adrp	x1, 420000 <__libc_start_main@GLIBC_2.34>
  40065c:	9100c021 	add	x1, x1, #0x30
  400660:	cb000021 	sub	x1, x1, x0
  400664:	d37ffc22 	lsr	x2, x1, #63
  400668:	8b810c41 	add	x1, x2, x1, asr #3
  40066c:	9341fc21 	asr	x1, x1, #1
  400670:	b40000c1 	cbz	x1, 400688 <register_tm_clones+0x38>
  400674:	f00000e2 	adrp	x2, 41f000 <__abi_tag+0x1e7c4>
  400678:	f947f042 	ldr	x2, [x2, #4064]
  40067c:	b4000062 	cbz	x2, 400688 <register_tm_clones+0x38>
  400680:	aa0203f0 	mov	x16, x2
  400684:	d61f0200 	br	x16
  400688:	d65f03c0 	ret

000000000040068c <__do_global_dtors_aux>:
  40068c:	a9be7bfd 	stp	x29, x30, [sp, #-32]!
  400690:	910003fd 	mov	x29, sp
  400694:	f9000bf3 	str	x19, [sp, #16]
  400698:	90000113 	adrp	x19, 420000 <__libc_start_main@GLIBC_2.34>
  40069c:	3940c260 	ldrb	w0, [x19, #48]
  4006a0:	37000080 	tbnz	w0, #0, 4006b0 <__do_global_dtors_aux+0x24>
  4006a4:	97ffffdf 	bl	400620 <deregister_tm_clones>
  4006a8:	52800020 	mov	w0, #0x1                   	// #1
  4006ac:	3900c260 	strb	w0, [x19, #48]
  4006b0:	f9400bf3 	ldr	x19, [sp, #16]
  4006b4:	a8c27bfd 	ldp	x29, x30, [sp], #32
  4006b8:	d65f03c0 	ret
  4006bc:	d503201f 	nop

00000000004006c0 <frame_dummy>:
  4006c0:	17ffffe4 	b	400650 <register_tm_clones>

Disassembly of section .fini:

00000000004006c4 <_fini>:
  4006c4:	d503233f 	paciasp
  4006c8:	a9bf7bfd 	stp	x29, x30, [sp, #-16]!
  4006cc:	910003fd 	mov	x29, sp
  4006d0:	a8c17bfd 	ldp	x29, x30, [sp], #16
  4006d4:	d50323bf 	autiasp
  4006d8:	d65f03c0 	ret
